; ModuleID = '54/1106.c'
source_filename = "54/1106.c"
target datalayout = "e-m:e-p270:32:32-p271:32:32-p272:64:64-i64:64-f80:128-n8:16:32:64-S128"
target triple = "x86_64-pc-linux-gnu"

@.str = private unnamed_addr constant [6 x i8] c"%d %d\00", align 1
@.str.1 = private unnamed_addr constant [3 x i8] c"%d\00", align 1

; Function Attrs: noinline nounwind uwtable
define dso_local i32 @main() #0 {
  %1 = alloca i32, align 4
  %2 = alloca i32, align 4
  %3 = alloca i32, align 4
  %4 = alloca i32, align 4
  store i32 0, i32* %1, align 4
  %5 = call i32 (i8*, ...) @__isoc99_scanf(i8* getelementptr inbounds ([6 x i8], [6 x i8]* @.str, i64 0, i64 0), i32* %2, i32* %3)
  %6 = load i32, i32* %2, align 4
  %7 = load i32, i32* %3, align 4
  %8 = call i32 @qium(i32 %6, i32 %7)
  store i32 %8, i32* %4, align 4
  %9 = load i32, i32* %4, align 4
  %10 = call i32 (i8*, ...) @printf(i8* getelementptr inbounds ([3 x i8], [3 x i8]* @.str.1, i64 0, i64 0), i32 %9)
  ret i32 0
}

declare dso_local i32 @__isoc99_scanf(i8*, ...) #1

; Function Attrs: noinline nounwind uwtable
define dso_local i32 @qium(i32 %0, i32 %1) #0 {
  %3 = alloca i32, align 4
  %4 = alloca i32, align 4
  %5 = alloca i32, align 4
  %6 = alloca i32, align 4
  %7 = alloca i32, align 4
  %8 = alloca i32, align 4
  %9 = alloca i32, align 4
  store i32 %0, i32* %3, align 4
  store i32 %1, i32* %4, align 4
  store i32 1, i32* %7, align 4
  store i32 -1, i32* %5, align 4
  br label %10

10:                                               ; preds = %50, %2
  %11 = load i32, i32* %7, align 4
  %12 = load i32, i32* %3, align 4
  %13 = icmp ne i32 %11, %12
  br i1 %13, label %14, label %51

14:                                               ; preds = %10
  store i32 1, i32* %7, align 4
  %15 = load i32, i32* %5, align 4
  %16 = add nsw i32 %15, 1
  store i32 %16, i32* %5, align 4
  %17 = load i32, i32* %3, align 4
  %18 = load i32, i32* %5, align 4
  %19 = add nsw i32 %18, 1
  %20 = mul nsw i32 %17, %19
  %21 = load i32, i32* %4, align 4
  %22 = add nsw i32 %20, %21
  store i32 %22, i32* %8, align 4
  %23 = load i32, i32* %8, align 4
  store i32 %23, i32* %9, align 4
  store i32 0, i32* %6, align 4
  br label %24

24:                                               ; preds = %47, %14
  %25 = load i32, i32* %3, align 4
  %26 = sub nsw i32 %25, 1
  %27 = load i32, i32* %9, align 4
  %28 = load i32, i32* %4, align 4
  %29 = sub nsw i32 %27, %28
  %30 = mul nsw i32 %26, %29
  %31 = load i32, i32* %3, align 4
  %32 = sdiv i32 %30, %31
  store i32 %32, i32* %9, align 4
  %33 = load i32, i32* %9, align 4
  %34 = load i32, i32* %3, align 4
  %35 = icmp slt i32 %33, %34
  br i1 %35, label %42, label %36

36:                                               ; preds = %24
  %37 = load i32, i32* %9, align 4
  %38 = load i32, i32* %3, align 4
  %39 = srem i32 %37, %38
  %40 = load i32, i32* %4, align 4
  %41 = icmp ne i32 %39, %40
  br i1 %41, label %42, label %43

42:                                               ; preds = %36, %24
  br label %50

43:                                               ; preds = %36
  %44 = load i32, i32* %7, align 4
  %45 = add nsw i32 %44, 1
  store i32 %45, i32* %7, align 4
  br label %46

46:                                               ; preds = %43
  br label %47

47:                                               ; preds = %46
  %48 = load i32, i32* %6, align 4
  %49 = add nsw i32 %48, 1
  store i32 %49, i32* %6, align 4
  br label %24

50:                                               ; preds = %42
  br label %10

51:                                               ; preds = %10
  %52 = load i32, i32* %8, align 4
  ret i32 %52
}

declare dso_local i32 @printf(i8*, ...) #1


!llvm.module.flags = !{!0}
!llvm.ident = !{!1}

!0 = !{i32 1, !"wchar_size", i32 4}
!1 = !{!"clang version 10.0.0-4ubuntu1 "}
